target datalayout = "e-m:e-p270:32:32-p271:32:32-p272:64:64-i64:64-i128:128-f80:128-n8:16:32:64-S128"
target triple = "x86_64-pc-linux-gnu"

@.str.15 = private unnamed_addr constant [5 x i8] c"\22<>&\00", align 1
@.str.16 = private unnamed_addr constant [7 x i8] c"&quot;\00", align 1
@.str.17 = private unnamed_addr constant [5 x i8] c"&lt;\00", align 1
@.str.18 = private unnamed_addr constant [5 x i8] c"&gt;\00", align 1
@.str.19 = private unnamed_addr constant [6 x i8] c"&amp;\00", align 1

; Function Attrs: inlinehint nounwind uwtable
define internal void @strbuf_addstr(ptr noundef %0, ptr noundef %1) #1 {
  %3 = alloca ptr, align 8
  %4 = alloca ptr, align 8
  store ptr %0, ptr %3, align 8, !tbaa !18
  store ptr %1, ptr %4, align 8, !tbaa !4
  %5 = load ptr, ptr %3, align 8, !tbaa !18
  %6 = load ptr, ptr %4, align 8, !tbaa !4
  %7 = load ptr, ptr %4, align 8, !tbaa !4
  %8 = call i64 @strlen(ptr noundef %7) #13
  call void @strbuf_add(ptr noundef %5, ptr noundef %6, i64 noundef %8)
  ret void
}

; Function Attrs: nounwind uwtable
define dso_local void @strbuf_addstr_xml_quoted(ptr noundef %0, ptr noundef %1) #0 {
  %3 = alloca ptr, align 8
  %4 = alloca ptr, align 8
  %5 = alloca i64, align 8
  %6 = alloca i32, align 4
  store ptr %0, ptr %3, align 8, !tbaa !18
  store ptr %1, ptr %4, align 8, !tbaa !4
  br label %7

7:                                                ; preds = %37, %2
  %8 = load ptr, ptr %4, align 8, !tbaa !4
  %9 = load i8, ptr %8, align 1, !tbaa !9
  %10 = icmp ne i8 %9, 0
  br i1 %10, label %11, label %38

11:                                               ; preds = %7
  call void @llvm.lifetime.start.p0(i64 8, ptr %5) #11
  %12 = load ptr, ptr %4, align 8, !tbaa !4
  %13 = call i64 @strcspn(ptr noundef %12, ptr noundef @.str.15) #13
  store i64 %13, ptr %5, align 8, !tbaa !12
  %14 = load ptr, ptr %3, align 8, !tbaa !18
  %15 = load ptr, ptr %4, align 8, !tbaa !4
  %16 = load i64, ptr %5, align 8, !tbaa !12
  call void @strbuf_add(ptr noundef %14, ptr noundef %15, i64 noundef %16)
  %17 = load i64, ptr %5, align 8, !tbaa !12
  %18 = load ptr, ptr %4, align 8, !tbaa !4
  %19 = getelementptr inbounds nuw i8, ptr %18, i64 %17
  store ptr %19, ptr %4, align 8, !tbaa !4
  %20 = load ptr, ptr %4, align 8, !tbaa !4
  %21 = load i8, ptr %20, align 1, !tbaa !9
  %22 = sext i8 %21 to i32
  switch i32 %22, label %32 [
    i32 34, label %23
    i32 60, label %25
    i32 62, label %27
    i32 38, label %29
    i32 0, label %31
  ]

23:                                               ; preds = %11
  %24 = load ptr, ptr %3, align 8, !tbaa !18
  call void @strbuf_addstr(ptr noundef %24, ptr noundef @.str.16)
  br label %32

25:                                               ; preds = %11
  %26 = load ptr, ptr %3, align 8, !tbaa !18
  call void @strbuf_addstr(ptr noundef %26, ptr noundef @.str.17)
  br label %32

27:                                               ; preds = %11
  %28 = load ptr, ptr %3, align 8, !tbaa !18
  call void @strbuf_addstr(ptr noundef %28, ptr noundef @.str.18)
  br label %32

29:                                               ; preds = %11
  %30 = load ptr, ptr %3, align 8, !tbaa !18
  call void @strbuf_addstr(ptr noundef %30, ptr noundef @.str.19)
  br label %32

31:                                               ; preds = %11
  store i32 1, ptr %6, align 4
  br label %35

32:                                               ; preds = %11, %29, %27, %25, %23
  %33 = load ptr, ptr %4, align 8, !tbaa !4
  %34 = getelementptr inbounds nuw i8, ptr %33, i32 1
  store ptr %34, ptr %4, align 8, !tbaa !4
  store i32 0, ptr %6, align 4
  br label %35

35:                                               ; preds = %32, %31
  call void @llvm.lifetime.end.p0(i64 8, ptr %5) #11
  %36 = load i32, ptr %6, align 4
  switch i32 %36, label %39 [
    i32 0, label %37
    i32 1, label %38
  ]

37:                                               ; preds = %35
  br label %7, !llvm.loop !55

38:                                               ; preds = %35, %7
  ret void

39:                                               ; preds = %35
  unreachable
}