; Function Attrs: nounwind uwtable
define dso_local void @strbuf_addstr_xml_quoted(ptr noundef captures(none) %0, ptr noundef readonly captures(none) %1) local_unnamed_addr #3 {
  %3 = load i8, ptr %1, align 1, !tbaa !4
  %.not17 = icmp eq i8 %3, 0
  br i1 %.not17, label %.thread, label %.lr.ph

.lr.ph:                                           ; preds = %2, %11
  %.01318 = phi ptr [ %12, %11 ], [ %1, %2 ]
  %4 = tail call i64 @strcspn(ptr noundef nonnull %.01318, ptr noundef nonnull @.str.15) #26
  tail call void @strbuf_add(ptr noundef %0, ptr noundef nonnull %.01318, i64 noundef %4)
  %5 = getelementptr inbounds nuw i8, ptr %.01318, i64 %4
  %6 = load i8, ptr %5, align 1, !tbaa !4
  switch i8 %6, label %11 [
    i8 34, label %7
    i8 60, label %8
    i8 62, label %9
    i8 38, label %10
    i8 0, label %.thread
  ]

7:                                                ; preds = %.lr.ph
  tail call void @strbuf_add(ptr noundef %0, ptr noundef nonnull @.str.16, i64 noundef 6)
  br label %11

8:                                                ; preds = %.lr.ph
  tail call void @strbuf_add(ptr noundef %0, ptr noundef nonnull @.str.17, i64 noundef 4)
  br label %11

9:                                                ; preds = %.lr.ph
  tail call void @strbuf_add(ptr noundef %0, ptr noundef nonnull @.str.18, i64 noundef 4)
  br label %11

10:                                               ; preds = %.lr.ph
  tail call void @strbuf_add(ptr noundef %0, ptr noundef nonnull @.str.19, i64 noundef 5)
  br label %11

11:                                               ; preds = %.lr.ph, %7, %8, %9, %10
  %12 = getelementptr inbounds nuw i8, ptr %5, i64 1
  %13 = load i8, ptr %12, align 1, !tbaa !4
  %.not = icmp eq i8 %13, 0
  br i1 %.not, label %.thread, label %.lr.ph

.thread:                                          ; preds = %11, %.lr.ph, %2
  ret void
}